target datalayout = "e-m:e-p270:32:32-p271:32:32-p272:64:64-i64:64-i128:128-f80:128-n8:16:32:64-S128"
target triple = "x86_64-pc-linux-gnu"

%struct.pkcs7_st = type { ptr, i64, i32, i32, ptr, %union.anon, %struct.PKCS7_CTX_st }
%union.anon = type { ptr }
%struct.PKCS7_CTX_st = type { ptr, ptr }
%struct.pkcs7_signed_st = type { ptr, ptr, ptr, ptr, ptr, ptr }
%struct.pkcs7_signedandenveloped_st = type { ptr, ptr, ptr, ptr, ptr, ptr, ptr }
%struct.pkcs7_signer_info_st = type { ptr, ptr, ptr, ptr, ptr, ptr, ptr, ptr, ptr }
%struct.X509_algor_st = type { ptr, ptr }
%struct.asn1_type_st = type { i32, %union.anon.0 }
%union.anon.0 = type { ptr }

@.str = private unnamed_addr constant [34 x i8] c"../openssl/crypto/pkcs7/pk7_lib.c\00", align 1
@__func__.PKCS7_add_signer = private unnamed_addr constant [17 x i8] c"PKCS7_add_signer\00", align 1

; Function Attrs: inlinehint nounwind uwtable
define internal ptr @ossl_check_PKCS7_SIGNER_INFO_type(ptr noundef %0) #3 {
  %2 = alloca ptr, align 8
  store ptr %0, ptr %2, align 8, !tbaa !52
  %3 = load ptr, ptr %2, align 8, !tbaa !52
  ret ptr %3
}

; Function Attrs: inlinehint nounwind uwtable
define internal ptr @ossl_check_PKCS7_SIGNER_INFO_sk_type(ptr noundef %0) #3 {
  %2 = alloca ptr, align 8
  store ptr %0, ptr %2, align 8, !tbaa !55
  %3 = load ptr, ptr %2, align 8, !tbaa !55
  ret ptr %3
}

; Function Attrs: nounwind uwtable
define ptr @ossl_pkcs7_get0_ctx(ptr noundef %0) #0 {
  %2 = alloca ptr, align 8
  store ptr %0, ptr %2, align 8, !tbaa !3
  %3 = load ptr, ptr %2, align 8, !tbaa !3
  %4 = icmp ne ptr %3, null
  br i1 %4, label %5, label %8

5:                                                ; preds = %1
  %6 = load ptr, ptr %2, align 8, !tbaa !3
  %7 = getelementptr inbounds nuw %struct.pkcs7_st, ptr %6, i32 0, i32 6
  br label %9

8:                                                ; preds = %1
  br label %9

9:                                                ; preds = %8, %5
  %10 = phi ptr [ %7, %5 ], [ null, %8 ]
  ret ptr %10
}

; Function Attrs: inlinehint nounwind uwtable
define internal ptr @ossl_check_X509_ALGOR_type(ptr noundef %0) #3 {
  %2 = alloca ptr, align 8
  store ptr %0, ptr %2, align 8, !tbaa !67
  %3 = load ptr, ptr %2, align 8, !tbaa !67
  ret ptr %3
}

; Function Attrs: inlinehint nounwind uwtable
define internal ptr @ossl_check_X509_ALGOR_sk_type(ptr noundef %0) #3 {
  %2 = alloca ptr, align 8
  store ptr %0, ptr %2, align 8, !tbaa !57
  %3 = load ptr, ptr %2, align 8, !tbaa !57
  ret ptr %3
}

; Function Attrs: inlinehint nounwind uwtable
define internal ptr @ossl_check_const_X509_ALGOR_sk_type(ptr noundef %0) #3 {
  %2 = alloca ptr, align 8
  store ptr %0, ptr %2, align 8, !tbaa !57
  %3 = load ptr, ptr %2, align 8, !tbaa !57
  ret ptr %3
}

; Function Attrs: nounwind uwtable
define i32 @PKCS7_add_signer(ptr noundef %0, ptr noundef %1) #0 {
  %3 = alloca i32, align 4
  %4 = alloca ptr, align 8
  %5 = alloca ptr, align 8
  %6 = alloca i32, align 4
  %7 = alloca i32, align 4
  %8 = alloca ptr, align 8
  %9 = alloca ptr, align 8
  %10 = alloca ptr, align 8
  %11 = alloca ptr, align 8
  %12 = alloca i32, align 4
  %13 = alloca i32, align 4
  store ptr %0, ptr %4, align 8, !tbaa !3
  store ptr %1, ptr %5, align 8, !tbaa !52
  call void @llvm.lifetime.start.p0(i64 4, ptr %6) #4
  call void @llvm.lifetime.start.p0(i64 4, ptr %7) #4
  call void @llvm.lifetime.start.p0(i64 8, ptr %8) #4
  call void @llvm.lifetime.start.p0(i64 8, ptr %9) #4
  call void @llvm.lifetime.start.p0(i64 8, ptr %10) #4
  call void @llvm.lifetime.start.p0(i64 8, ptr %11) #4
  %14 = load ptr, ptr %4, align 8, !tbaa !3
  %15 = getelementptr inbounds nuw %struct.pkcs7_st, ptr %14, i32 0, i32 4
  %16 = load ptr, ptr %15, align 8, !tbaa !14
  %17 = call i32 @OBJ_obj2nid(ptr noundef %16)
  store i32 %17, ptr %6, align 4, !tbaa !8
  %18 = load i32, ptr %6, align 4, !tbaa !8
  switch i32 %18, label %41 [
    i32 22, label %19
    i32 24, label %30
  ]

19:                                               ; preds = %2
  %20 = load ptr, ptr %4, align 8, !tbaa !3
  %21 = getelementptr inbounds nuw %struct.pkcs7_st, ptr %20, i32 0, i32 5
  %22 = load ptr, ptr %21, align 8, !tbaa !19
  %23 = getelementptr inbounds nuw %struct.pkcs7_signed_st, ptr %22, i32 0, i32 4
  %24 = load ptr, ptr %23, align 8, !tbaa !54
  store ptr %24, ptr %10, align 8, !tbaa !55
  %25 = load ptr, ptr %4, align 8, !tbaa !3
  %26 = getelementptr inbounds nuw %struct.pkcs7_st, ptr %25, i32 0, i32 5
  %27 = load ptr, ptr %26, align 8, !tbaa !19
  %28 = getelementptr inbounds nuw %struct.pkcs7_signed_st, ptr %27, i32 0, i32 1
  %29 = load ptr, ptr %28, align 8, !tbaa !56
  store ptr %29, ptr %11, align 8, !tbaa !57
  br label %42

30:                                               ; preds = %2
  %31 = load ptr, ptr %4, align 8, !tbaa !3
  %32 = getelementptr inbounds nuw %struct.pkcs7_st, ptr %31, i32 0, i32 5
  %33 = load ptr, ptr %32, align 8, !tbaa !19
  %34 = getelementptr inbounds nuw %struct.pkcs7_signedandenveloped_st, ptr %33, i32 0, i32 4
  %35 = load ptr, ptr %34, align 8, !tbaa !58
  store ptr %35, ptr %10, align 8, !tbaa !55
  %36 = load ptr, ptr %4, align 8, !tbaa !3
  %37 = getelementptr inbounds nuw %struct.pkcs7_st, ptr %36, i32 0, i32 5
  %38 = load ptr, ptr %37, align 8, !tbaa !19
  %39 = getelementptr inbounds nuw %struct.pkcs7_signedandenveloped_st, ptr %38, i32 0, i32 1
  %40 = load ptr, ptr %39, align 8, !tbaa !59
  store ptr %40, ptr %11, align 8, !tbaa !57
  br label %42

41:                                               ; preds = %2
  call void @ERR_new()
  call void @ERR_set_debug(ptr noundef @.str, i32 noundef 212, ptr noundef @__func__.PKCS7_add_signer)
  call void (i32, i32, ptr, ...) @ERR_set_error(i32 noundef 33, i32 noundef 113, ptr noundef null)
  store i32 0, ptr %3, align 4
  store i32 1, ptr %12, align 4
  br label %132

42:                                               ; preds = %30, %19
  %43 = load ptr, ptr %5, align 8, !tbaa !52
  %44 = getelementptr inbounds nuw %struct.pkcs7_signer_info_st, ptr %43, i32 0, i32 2
  %45 = load ptr, ptr %44, align 8, !tbaa !60
  %46 = getelementptr inbounds nuw %struct.X509_algor_st, ptr %45, i32 0, i32 0
  %47 = load ptr, ptr %46, align 8, !tbaa !65
  store ptr %47, ptr %8, align 8, !tbaa !29
  store i32 0, ptr %7, align 4, !tbaa !8
  store i32 0, ptr %6, align 4, !tbaa !8
  br label %48

48:                                               ; preds = %67, %42
  %49 = load i32, ptr %6, align 4, !tbaa !8
  %50 = load ptr, ptr %11, align 8, !tbaa !57
  %51 = call ptr @ossl_check_const_X509_ALGOR_sk_type(ptr noundef %50)
  %52 = call i32 @OPENSSL_sk_num(ptr noundef %51)
  %53 = icmp slt i32 %49, %52
  br i1 %53, label %54, label %70

54:                                               ; preds = %48
  %55 = load ptr, ptr %11, align 8, !tbaa !57
  %56 = call ptr @ossl_check_const_X509_ALGOR_sk_type(ptr noundef %55)
  %57 = load i32, ptr %6, align 4, !tbaa !8
  %58 = call ptr @OPENSSL_sk_value(ptr noundef %56, i32 noundef %57)
  store ptr %58, ptr %9, align 8, !tbaa !67
  %59 = load ptr, ptr %8, align 8, !tbaa !29
  %60 = load ptr, ptr %9, align 8, !tbaa !67
  %61 = getelementptr inbounds nuw %struct.X509_algor_st, ptr %60, i32 0, i32 0
  %62 = load ptr, ptr %61, align 8, !tbaa !65
  %63 = call i32 @OBJ_cmp(ptr noundef %59, ptr noundef %62)
  %64 = icmp eq i32 %63, 0
  br i1 %64, label %65, label %66

65:                                               ; preds = %54
  store i32 1, ptr %7, align 4, !tbaa !8
  br label %70

66:                                               ; preds = %54
  br label %67

67:                                               ; preds = %66
  %68 = load i32, ptr %6, align 4, !tbaa !8
  %69 = add nsw i32 %68, 1
  store i32 %69, ptr %6, align 4, !tbaa !8
  br label %48, !llvm.loop !68

70:                                               ; preds = %65, %48
  %71 = load i32, ptr %7, align 4, !tbaa !8
  %72 = icmp ne i32 %71, 0
  br i1 %72, label %119, label %73

73:                                               ; preds = %70
  call void @llvm.lifetime.start.p0(i64 4, ptr %13) #4
  %74 = call ptr @X509_ALGOR_new()
  store ptr %74, ptr %9, align 8, !tbaa !67
  %75 = icmp eq ptr %74, null
  br i1 %75, label %81, label %76

76:                                               ; preds = %73
  %77 = call ptr @ASN1_TYPE_new()
  %78 = load ptr, ptr %9, align 8, !tbaa !67
  %79 = getelementptr inbounds nuw %struct.X509_algor_st, ptr %78, i32 0, i32 1
  store ptr %77, ptr %79, align 8, !tbaa !70
  %80 = icmp eq ptr %77, null
  br i1 %80, label %81, label %83

81:                                               ; preds = %76, %73
  %82 = load ptr, ptr %9, align 8, !tbaa !67
  call void @X509_ALGOR_free(ptr noundef %82)
  call void @ERR_new()
  call void @ERR_set_debug(ptr noundef @.str, i32 noundef 232, ptr noundef @__func__.PKCS7_add_signer)
  call void (i32, i32, ptr, ...) @ERR_set_error(i32 noundef 33, i32 noundef 524301, ptr noundef null)
  store i32 0, ptr %3, align 4
  store i32 1, ptr %12, align 4
  br label %116

83:                                               ; preds = %76
  %84 = load ptr, ptr %8, align 8, !tbaa !29
  %85 = call i32 @OBJ_obj2nid(ptr noundef %84)
  store i32 %85, ptr %13, align 4, !tbaa !8
  %86 = icmp ne i32 %85, 0
  br i1 %86, label %87, label %92

87:                                               ; preds = %83
  %88 = load i32, ptr %13, align 4, !tbaa !8
  %89 = call ptr @OBJ_nid2obj(i32 noundef %88)
  %90 = load ptr, ptr %9, align 8, !tbaa !67
  %91 = getelementptr inbounds nuw %struct.X509_algor_st, ptr %90, i32 0, i32 0
  store ptr %89, ptr %91, align 8, !tbaa !65
  br label %97

92:                                               ; preds = %83
  %93 = load ptr, ptr %8, align 8, !tbaa !29
  %94 = call ptr @OBJ_dup(ptr noundef %93)
  %95 = load ptr, ptr %9, align 8, !tbaa !67
  %96 = getelementptr inbounds nuw %struct.X509_algor_st, ptr %95, i32 0, i32 0
  store ptr %94, ptr %96, align 8, !tbaa !65
  br label %97

97:                                               ; preds = %92, %87
  %98 = load ptr, ptr %9, align 8, !tbaa !67
  %99 = getelementptr inbounds nuw %struct.X509_algor_st, ptr %98, i32 0, i32 1
  %100 = load ptr, ptr %99, align 8, !tbaa !70
  %101 = getelementptr inbounds nuw %struct.asn1_type_st, ptr %100, i32 0, i32 0
  store i32 5, ptr %101, align 8, !tbaa !71
  %102 = load ptr, ptr %9, align 8, !tbaa !67
  %103 = getelementptr inbounds nuw %struct.X509_algor_st, ptr %102, i32 0, i32 0
  %104 = load ptr, ptr %103, align 8, !tbaa !65
  %105 = icmp eq ptr %104, null
  br i1 %105, label %113, label %106

106:                                              ; preds = %97
  %107 = load ptr, ptr %11, align 8, !tbaa !57
  %108 = call ptr @ossl_check_X509_ALGOR_sk_type(ptr noundef %107)
  %109 = load ptr, ptr %9, align 8, !tbaa !67
  %110 = call ptr @ossl_check_X509_ALGOR_type(ptr noundef %109)
  %111 = call i32 @OPENSSL_sk_push(ptr noundef %108, ptr noundef %110)
  %112 = icmp ne i32 %111, 0
  br i1 %112, label %115, label %113

113:                                              ; preds = %106, %97
  %114 = load ptr, ptr %9, align 8, !tbaa !67
  call void @X509_ALGOR_free(ptr noundef %114)
  store i32 0, ptr %3, align 4
  store i32 1, ptr %12, align 4
  br label %116

115:                                              ; preds = %106
  store i32 0, ptr %12, align 4
  br label %116

116:                                              ; preds = %115, %113, %81
  call void @llvm.lifetime.end.p0(i64 4, ptr %13) #4
  %117 = load i32, ptr %12, align 4
  switch i32 %117, label %132 [
    i32 0, label %118
  ]

118:                                              ; preds = %116
  br label %119

119:                                              ; preds = %118, %70
  %120 = load ptr, ptr %4, align 8, !tbaa !3
  %121 = call ptr @ossl_pkcs7_get0_ctx(ptr noundef %120)
  %122 = load ptr, ptr %5, align 8, !tbaa !52
  %123 = getelementptr inbounds nuw %struct.pkcs7_signer_info_st, ptr %122, i32 0, i32 8
  store ptr %121, ptr %123, align 8, !tbaa !73
  %124 = load ptr, ptr %10, align 8, !tbaa !55
  %125 = call ptr @ossl_check_PKCS7_SIGNER_INFO_sk_type(ptr noundef %124)
  %126 = load ptr, ptr %5, align 8, !tbaa !52
  %127 = call ptr @ossl_check_PKCS7_SIGNER_INFO_type(ptr noundef %126)
  %128 = call i32 @OPENSSL_sk_push(ptr noundef %125, ptr noundef %127)
  %129 = icmp ne i32 %128, 0
  br i1 %129, label %131, label %130

130:                                              ; preds = %119
  store i32 0, ptr %3, align 4
  store i32 1, ptr %12, align 4
  br label %132

131:                                              ; preds = %119
  store i32 1, ptr %3, align 4
  store i32 1, ptr %12, align 4
  br label %132

132:                                              ; preds = %131, %130, %116, %41
  call void @llvm.lifetime.end.p0(i64 8, ptr %11) #4
  call void @llvm.lifetime.end.p0(i64 8, ptr %10) #4
  call void @llvm.lifetime.end.p0(i64 8, ptr %9) #4
  call void @llvm.lifetime.end.p0(i64 8, ptr %8) #4
  call void @llvm.lifetime.end.p0(i64 4, ptr %7) #4
  call void @llvm.lifetime.end.p0(i64 4, ptr %6) #4
  %133 = load i32, ptr %3, align 4
  ret i32 %133
}