; Function Attrs: nounwind uwtable
define range(i32 0, 2) i32 @PKCS7_add_signer(ptr noundef %0, ptr noundef %1) local_unnamed_addr #0 {
  %3 = getelementptr inbounds nuw i8, ptr %0, i64 24
  %4 = load ptr, ptr %3, align 8, !tbaa !3
  %5 = tail call i32 @OBJ_obj2nid(ptr noundef %4) #7
  switch i32 %5, label %6 [
    i32 22, label %7
    i32 24, label %7
  ]

6:                                                ; preds = %2
  tail call void @ERR_new() #7
  tail call void @ERR_set_debug(ptr noundef nonnull @.str, i32 noundef 212, ptr noundef nonnull @__func__.PKCS7_add_signer) #7
  tail call void (i32, i32, ptr, ...) @ERR_set_error(i32 noundef 33, i32 noundef 113, ptr noundef null) #7
  br label %.critedge44

7:                                                ; preds = %2, %2
  %.pn.in = getelementptr inbounds nuw i8, ptr %0, i64 32
  %.pn = load ptr, ptr %.pn.in, align 8, !tbaa !14
  %.033.in = getelementptr inbounds nuw i8, ptr %.pn, i64 8
  %.033 = load ptr, ptr %.033.in, align 8, !tbaa !44
  %.034.in = getelementptr inbounds nuw i8, ptr %.pn, i64 32
  %.034 = load ptr, ptr %.034.in, align 8, !tbaa !45
  %8 = getelementptr inbounds nuw i8, ptr %1, i64 16
  %9 = load ptr, ptr %8, align 8, !tbaa !46
  %10 = load ptr, ptr %9, align 8, !tbaa !51
  %11 = tail call i32 @OPENSSL_sk_num(ptr noundef %.033) #7
  %.not45 = icmp sgt i32 %11, 0
  br i1 %.not45, label %.lr.ph, label %.critedge

12:                                               ; preds = %.lr.ph
  %13 = add nuw nsw i32 %.03546, 1
  %14 = tail call i32 @OPENSSL_sk_num(ptr noundef %.033) #7
  %.not = icmp slt i32 %13, %14
  br i1 %.not, label %.lr.ph, label %.critedge, !llvm.loop !54

.lr.ph:                                           ; preds = %7, %12
  %.03546 = phi i32 [ %13, %12 ], [ 0, %7 ]
  %15 = tail call ptr @OPENSSL_sk_value(ptr noundef %.033, i32 noundef %.03546) #7
  %16 = load ptr, ptr %15, align 8, !tbaa !51
  %17 = tail call i32 @OBJ_cmp(ptr noundef %10, ptr noundef %16) #7
  %18 = icmp eq i32 %17, 0
  br i1 %18, label %.loopexit, label %12

.critedge:                                        ; preds = %12, %7
  %19 = tail call ptr @X509_ALGOR_new() #7
  %20 = icmp eq ptr %19, null
  br i1 %20, label %25, label %21

21:                                               ; preds = %.critedge
  %22 = tail call ptr @ASN1_TYPE_new() #7
  %23 = getelementptr inbounds nuw i8, ptr %19, i64 8
  store ptr %22, ptr %23, align 8, !tbaa !56
  %24 = icmp eq ptr %22, null
  br i1 %24, label %25, label %26

25:                                               ; preds = %21, %.critedge
  tail call void @X509_ALGOR_free(ptr noundef %19) #7
  tail call void @ERR_new() #7
  tail call void @ERR_set_debug(ptr noundef nonnull @.str, i32 noundef 232, ptr noundef nonnull @__func__.PKCS7_add_signer) #7
  tail call void (i32, i32, ptr, ...) @ERR_set_error(i32 noundef 33, i32 noundef 524301, ptr noundef null) #7
  br label %.critedge44

26:                                               ; preds = %21
  %27 = tail call i32 @OBJ_obj2nid(ptr noundef %10) #7
  %.not40 = icmp eq i32 %27, 0
  br i1 %.not40, label %30, label %28

28:                                               ; preds = %26
  %29 = tail call ptr @OBJ_nid2obj(i32 noundef %27) #7
  br label %32

30:                                               ; preds = %26
  %31 = tail call ptr @OBJ_dup(ptr noundef %10) #7
  br label %32

32:                                               ; preds = %30, %28
  %storemerge = phi ptr [ %31, %30 ], [ %29, %28 ]
  store ptr %storemerge, ptr %19, align 8, !tbaa !51
  %33 = load ptr, ptr %23, align 8, !tbaa !56
  store i32 5, ptr %33, align 8, !tbaa !57
  %34 = icmp eq ptr %storemerge, null
  br i1 %34, label %37, label %35

35:                                               ; preds = %32
  %36 = tail call i32 @OPENSSL_sk_push(ptr noundef %.033, ptr noundef nonnull %19) #7
  %.not41 = icmp eq i32 %36, 0
  br i1 %.not41, label %37, label %.loopexit

37:                                               ; preds = %35, %32
  tail call void @X509_ALGOR_free(ptr noundef nonnull %19) #7
  br label %.critedge44

.loopexit:                                        ; preds = %.lr.ph, %35
  %.not.i = icmp eq ptr %0, null
  %38 = getelementptr inbounds nuw i8, ptr %0, i64 40
  %39 = select i1 %.not.i, ptr null, ptr %38
  %40 = getelementptr inbounds nuw i8, ptr %1, i64 64
  store ptr %39, ptr %40, align 8, !tbaa !59
  %41 = tail call i32 @OPENSSL_sk_push(ptr noundef %.034, ptr noundef %1) #7
  %.not42 = icmp ne i32 %41, 0
  %. = zext i1 %.not42 to i32
  br label %.critedge44

.critedge44:                                      ; preds = %25, %37, %.loopexit, %6
  %.0 = phi i32 [ 0, %6 ], [ %., %.loopexit ], [ 0, %37 ], [ 0, %25 ]
  ret i32 %.0
}